target datalayout = "e-m:e-p270:32:32-p271:32:32-p272:64:64-i64:64-i128:128-f80:128-n8:16:32:64-S128"
target triple = "x86_64-pc-linux-gnu"

; Function Attrs: nounwind uwtable
define internal void @blend_pixel(ptr noundef %0, i32 noundef %1, i32 noundef %2, ptr noundef %3, i32 noundef %4, i32 noundef %5, i32 noundef %6, i32 noundef %7, i32 noundef %8, i32 noundef %9) #0 {
  %11 = alloca ptr, align 8
  %12 = alloca i32, align 4
  %13 = alloca i32, align 4
  %14 = alloca ptr, align 8
  %15 = alloca i32, align 4
  %16 = alloca i32, align 4
  %17 = alloca i32, align 4
  %18 = alloca i32, align 4
  %19 = alloca i32, align 4
  %20 = alloca i32, align 4
  %21 = alloca i32, align 4
  %22 = alloca i32, align 4
  %23 = alloca i32, align 4
  %24 = alloca i32, align 4
  %25 = alloca i32, align 4
  %26 = alloca i32, align 4
  %27 = alloca i32, align 4
  %28 = alloca i32, align 4
  %29 = alloca i32, align 4
  store ptr %0, ptr %11, align 8, !tbaa !4
  store i32 %1, ptr %12, align 4, !tbaa !9
  store i32 %2, ptr %13, align 4, !tbaa !9
  store ptr %3, ptr %14, align 8, !tbaa !4
  store i32 %4, ptr %15, align 4, !tbaa !9
  store i32 %5, ptr %16, align 4, !tbaa !9
  store i32 %6, ptr %17, align 4, !tbaa !9
  store i32 %7, ptr %18, align 4, !tbaa !9
  store i32 %8, ptr %19, align 4, !tbaa !9
  store i32 %9, ptr %20, align 4, !tbaa !9
  call void @llvm.lifetime.start.p0(i64 4, ptr %21) #8
  store i32 0, ptr %21, align 4, !tbaa !9
  call void @llvm.lifetime.start.p0(i64 4, ptr %22) #8
  %30 = load i32, ptr %16, align 4, !tbaa !9
  %31 = sub nsw i32 3, %30
  store i32 %31, ptr %22, align 4, !tbaa !9
  call void @llvm.lifetime.start.p0(i64 4, ptr %23) #8
  %32 = load i32, ptr %16, align 4, !tbaa !9
  %33 = ashr i32 7, %32
  store i32 %33, ptr %23, align 4, !tbaa !9
  call void @llvm.lifetime.start.p0(i64 4, ptr %24) #8
  %34 = load i32, ptr %16, align 4, !tbaa !9
  %35 = shl i32 1, %34
  %36 = shl i32 1, %35
  %37 = sub nsw i32 %36, 1
  store i32 %37, ptr %24, align 4, !tbaa !9
  call void @llvm.lifetime.start.p0(i64 4, ptr %25) #8
  %38 = load i32, ptr %24, align 4, !tbaa !9
  %39 = udiv i32 255, %38
  store i32 %39, ptr %25, align 4, !tbaa !9
  call void @llvm.lifetime.start.p0(i64 4, ptr %26) #8
  store i32 0, ptr %26, align 4, !tbaa !9
  br label %40

40:                                               ; preds = %84, %10
  %41 = load i32, ptr %26, align 4, !tbaa !9
  %42 = load i32, ptr %18, align 4, !tbaa !9
  %43 = icmp ult i32 %41, %42
  br i1 %43, label %45, label %44

44:                                               ; preds = %40
  store i32 2, ptr %27, align 4
  call void @llvm.lifetime.end.p0(i64 4, ptr %26) #8
  br label %87

45:                                               ; preds = %40
  call void @llvm.lifetime.start.p0(i64 4, ptr %28) #8
  %46 = load i32, ptr %20, align 4, !tbaa !9
  store i32 %46, ptr %28, align 4, !tbaa !9
  call void @llvm.lifetime.start.p0(i64 4, ptr %29) #8
  store i32 0, ptr %29, align 4, !tbaa !9
  br label %47

47:                                               ; preds = %76, %45
  %48 = load i32, ptr %29, align 4, !tbaa !9
  %49 = load i32, ptr %17, align 4, !tbaa !9
  %50 = icmp ult i32 %48, %49
  br i1 %50, label %52, label %51

51:                                               ; preds = %47
  store i32 5, ptr %27, align 4
  call void @llvm.lifetime.end.p0(i64 4, ptr %29) #8
  br label %79

52:                                               ; preds = %47
  %53 = load ptr, ptr %14, align 8, !tbaa !4
  %54 = load i32, ptr %28, align 4, !tbaa !9
  %55 = load i32, ptr %22, align 4, !tbaa !9
  %56 = lshr i32 %54, %55
  %57 = zext i32 %56 to i64
  %58 = getelementptr inbounds nuw i8, ptr %53, i64 %57
  %59 = load i8, ptr %58, align 1, !tbaa !19
  %60 = zext i8 %59 to i32
  %61 = load i32, ptr %28, align 4, !tbaa !9
  %62 = xor i32 %61, -1
  %63 = load i32, ptr %23, align 4, !tbaa !9
  %64 = and i32 %62, %63
  %65 = load i32, ptr %16, align 4, !tbaa !9
  %66 = shl i32 %64, %65
  %67 = ashr i32 %60, %66
  %68 = load i32, ptr %24, align 4, !tbaa !9
  %69 = and i32 %67, %68
  %70 = load i32, ptr %25, align 4, !tbaa !9
  %71 = mul i32 %69, %70
  %72 = load i32, ptr %21, align 4, !tbaa !9
  %73 = add i32 %72, %71
  store i32 %73, ptr %21, align 4, !tbaa !9
  %74 = load i32, ptr %28, align 4, !tbaa !9
  %75 = add i32 %74, 1
  store i32 %75, ptr %28, align 4, !tbaa !9
  br label %76

76:                                               ; preds = %52
  %77 = load i32, ptr %29, align 4, !tbaa !9
  %78 = add i32 %77, 1
  store i32 %78, ptr %29, align 4, !tbaa !9
  br label %47, !llvm.loop !80

79:                                               ; preds = %51
  %80 = load i32, ptr %15, align 4, !tbaa !9
  %81 = load ptr, ptr %14, align 8, !tbaa !4
  %82 = sext i32 %80 to i64
  %83 = getelementptr inbounds i8, ptr %81, i64 %82
  store ptr %83, ptr %14, align 8, !tbaa !4
  call void @llvm.lifetime.end.p0(i64 4, ptr %28) #8
  br label %84

84:                                               ; preds = %79
  %85 = load i32, ptr %26, align 4, !tbaa !9
  %86 = add i32 %85, 1
  store i32 %86, ptr %26, align 4, !tbaa !9
  br label %40, !llvm.loop !81

87:                                               ; preds = %44
  %88 = load i32, ptr %21, align 4, !tbaa !9
  %89 = load i32, ptr %19, align 4, !tbaa !9
  %90 = lshr i32 %88, %89
  %91 = load i32, ptr %13, align 4, !tbaa !9
  %92 = mul i32 %90, %91
  store i32 %92, ptr %13, align 4, !tbaa !9
  %93 = load i32, ptr %13, align 4, !tbaa !9
  %94 = sub i32 16843009, %93
  %95 = load ptr, ptr %11, align 8, !tbaa !4
  %96 = load i8, ptr %95, align 1, !tbaa !19
  %97 = zext i8 %96 to i32
  %98 = mul i32 %94, %97
  %99 = load i32, ptr %13, align 4, !tbaa !9
  %100 = load i32, ptr %12, align 4, !tbaa !9
  %101 = mul i32 %99, %100
  %102 = add i32 %98, %101
  %103 = lshr i32 %102, 24
  %104 = trunc i32 %103 to i8
  %105 = load ptr, ptr %11, align 8, !tbaa !4
  store i8 %104, ptr %105, align 1, !tbaa !19
  call void @llvm.lifetime.end.p0(i64 4, ptr %25) #8
  call void @llvm.lifetime.end.p0(i64 4, ptr %24) #8
  call void @llvm.lifetime.end.p0(i64 4, ptr %23) #8
  call void @llvm.lifetime.end.p0(i64 4, ptr %22) #8
  call void @llvm.lifetime.end.p0(i64 4, ptr %21) #8
  ret void
}

; Function Attrs: nounwind uwtable
define internal void @blend_line_hv(ptr noundef %0, i32 noundef %1, i32 noundef %2, i32 noundef %3, ptr noundef %4, i32 noundef %5, i32 noundef %6, i32 noundef %7, i32 noundef %8, i32 noundef %9, i32 noundef %10, i32 noundef %11, i32 noundef %12, i32 noundef %13) #0 {
  %15 = alloca ptr, align 8
  %16 = alloca i32, align 4
  %17 = alloca i32, align 4
  %18 = alloca i32, align 4
  %19 = alloca ptr, align 8
  %20 = alloca i32, align 4
  %21 = alloca i32, align 4
  %22 = alloca i32, align 4
  %23 = alloca i32, align 4
  %24 = alloca i32, align 4
  %25 = alloca i32, align 4
  %26 = alloca i32, align 4
  %27 = alloca i32, align 4
  %28 = alloca i32, align 4
  %29 = alloca i32, align 4
  store ptr %0, ptr %15, align 8, !tbaa !4
  store i32 %1, ptr %16, align 4, !tbaa !9
  store i32 %2, ptr %17, align 4, !tbaa !9
  store i32 %3, ptr %18, align 4, !tbaa !9
  store ptr %4, ptr %19, align 8, !tbaa !4
  store i32 %5, ptr %20, align 4, !tbaa !9
  store i32 %6, ptr %21, align 4, !tbaa !9
  store i32 %7, ptr %22, align 4, !tbaa !9
  store i32 %8, ptr %23, align 4, !tbaa !9
  store i32 %9, ptr %24, align 4, !tbaa !9
  store i32 %10, ptr %25, align 4, !tbaa !9
  store i32 %11, ptr %26, align 4, !tbaa !9
  store i32 %12, ptr %27, align 4, !tbaa !9
  store i32 %13, ptr %28, align 4, !tbaa !9
  %30 = load i32, ptr %26, align 4, !tbaa !9
  %31 = icmp ne i32 %30, 0
  br i1 %31, label %32, label %52

32:                                               ; preds = %14
  %33 = load ptr, ptr %15, align 8, !tbaa !4
  %34 = load i32, ptr %17, align 4, !tbaa !9
  %35 = load i32, ptr %18, align 4, !tbaa !9
  %36 = load ptr, ptr %19, align 8, !tbaa !4
  %37 = load i32, ptr %20, align 4, !tbaa !9
  %38 = load i32, ptr %21, align 4, !tbaa !9
  %39 = load i32, ptr %26, align 4, !tbaa !9
  %40 = load i32, ptr %28, align 4, !tbaa !9
  %41 = load i32, ptr %23, align 4, !tbaa !9
  %42 = load i32, ptr %24, align 4, !tbaa !9
  %43 = add i32 %41, %42
  %44 = load i32, ptr %25, align 4, !tbaa !9
  call void @blend_pixel(ptr noundef %33, i32 noundef %34, i32 noundef %35, ptr noundef %36, i32 noundef %37, i32 noundef %38, i32 noundef %39, i32 noundef %40, i32 noundef %43, i32 noundef %44)
  %45 = load i32, ptr %16, align 4, !tbaa !9
  %46 = load ptr, ptr %15, align 8, !tbaa !4
  %47 = sext i32 %45 to i64
  %48 = getelementptr inbounds i8, ptr %46, i64 %47
  store ptr %48, ptr %15, align 8, !tbaa !4
  %49 = load i32, ptr %26, align 4, !tbaa !9
  %50 = load i32, ptr %25, align 4, !tbaa !9
  %51 = add nsw i32 %50, %49
  store i32 %51, ptr %25, align 4, !tbaa !9
  br label %52

52:                                               ; preds = %32, %14
  call void @llvm.lifetime.start.p0(i64 4, ptr %29) #8
  store i32 0, ptr %29, align 4, !tbaa !9
  br label %53

53:                                               ; preds = %80, %52
  %54 = load i32, ptr %29, align 4, !tbaa !9
  %55 = load i32, ptr %22, align 4, !tbaa !9
  %56 = icmp slt i32 %54, %55
  br i1 %56, label %58, label %57

57:                                               ; preds = %53
  call void @llvm.lifetime.end.p0(i64 4, ptr %29) #8
  br label %83

58:                                               ; preds = %53
  %59 = load ptr, ptr %15, align 8, !tbaa !4
  %60 = load i32, ptr %17, align 4, !tbaa !9
  %61 = load i32, ptr %18, align 4, !tbaa !9
  %62 = load ptr, ptr %19, align 8, !tbaa !4
  %63 = load i32, ptr %20, align 4, !tbaa !9
  %64 = load i32, ptr %21, align 4, !tbaa !9
  %65 = load i32, ptr %23, align 4, !tbaa !9
  %66 = shl i32 1, %65
  %67 = load i32, ptr %28, align 4, !tbaa !9
  %68 = load i32, ptr %23, align 4, !tbaa !9
  %69 = load i32, ptr %24, align 4, !tbaa !9
  %70 = add i32 %68, %69
  %71 = load i32, ptr %25, align 4, !tbaa !9
  call void @blend_pixel(ptr noundef %59, i32 noundef %60, i32 noundef %61, ptr noundef %62, i32 noundef %63, i32 noundef %64, i32 noundef %66, i32 noundef %67, i32 noundef %70, i32 noundef %71)
  %72 = load i32, ptr %16, align 4, !tbaa !9
  %73 = load ptr, ptr %15, align 8, !tbaa !4
  %74 = sext i32 %72 to i64
  %75 = getelementptr inbounds i8, ptr %73, i64 %74
  store ptr %75, ptr %15, align 8, !tbaa !4
  %76 = load i32, ptr %23, align 4, !tbaa !9
  %77 = shl i32 1, %76
  %78 = load i32, ptr %25, align 4, !tbaa !9
  %79 = add nsw i32 %78, %77
  store i32 %79, ptr %25, align 4, !tbaa !9
  br label %80

80:                                               ; preds = %58
  %81 = load i32, ptr %29, align 4, !tbaa !9
  %82 = add nsw i32 %81, 1
  store i32 %82, ptr %29, align 4, !tbaa !9
  br label %53, !llvm.loop !75

83:                                               ; preds = %57
  %84 = load i32, ptr %27, align 4, !tbaa !9
  %85 = icmp ne i32 %84, 0
  br i1 %85, label %86, label %99

86:                                               ; preds = %83
  %87 = load ptr, ptr %15, align 8, !tbaa !4
  %88 = load i32, ptr %17, align 4, !tbaa !9
  %89 = load i32, ptr %18, align 4, !tbaa !9
  %90 = load ptr, ptr %19, align 8, !tbaa !4
  %91 = load i32, ptr %20, align 4, !tbaa !9
  %92 = load i32, ptr %21, align 4, !tbaa !9
  %93 = load i32, ptr %27, align 4, !tbaa !9
  %94 = load i32, ptr %28, align 4, !tbaa !9
  %95 = load i32, ptr %23, align 4, !tbaa !9
  %96 = load i32, ptr %24, align 4, !tbaa !9
  %97 = add i32 %95, %96
  %98 = load i32, ptr %25, align 4, !tbaa !9
  call void @blend_pixel(ptr noundef %87, i32 noundef %88, i32 noundef %89, ptr noundef %90, i32 noundef %91, i32 noundef %92, i32 noundef %93, i32 noundef %94, i32 noundef %97, i32 noundef %98)
  br label %99

99:                                               ; preds = %86, %83
  ret void
}