; Function Attrs: nofree norecurse nosync nounwind memory(argmem: readwrite) uwtable
define internal fastcc void @blend_line_hv(ptr noundef captures(none) %0, i32 noundef %1, i32 noundef range(i32 0, 256) %2, i32 noundef range(i32 1, 66052) %3, ptr noundef readonly captures(none) %4, i32 noundef %5, i32 noundef %6, i32 noundef %7, i32 noundef range(i32 0, 256) %8, i32 noundef range(i32 0, 256) %9, i32 noundef %10, i32 noundef %11, i32 noundef %12, i32 noundef %13) unnamed_addr #7 {
  %.not = icmp eq i32 %11, 0
  br i1 %.not, label %53, label %15

15:                                               ; preds = %14
  %16 = add nuw nsw i32 %9, %8
  %17 = sub nsw i32 3, %6
  %18 = lshr i32 7, %6
  %19 = shl nuw i32 1, %6
  %notmask.i = shl nsw i32 -1, %19
  %20 = xor i32 %notmask.i, -1
  %21 = udiv i32 255, %20
  %.not.i = icmp eq i32 %13, 0
  br i1 %.not.i, label %blend_pixel.exit, label %.preheader.lr.ph.i

.preheader.lr.ph.i:                               ; preds = %15
  %22 = sext i32 %5 to i64
  br label %.preheader.us.i

.preheader.us.i:                                  ; preds = %.preheader.lr.ph.i, %._crit_edge.us.i
  %.03139.us.i = phi i32 [ %39, %._crit_edge.us.i ], [ 0, %.preheader.lr.ph.i ]
  %.03238.us.i = phi ptr [ %38, %._crit_edge.us.i ], [ %4, %.preheader.lr.ph.i ]
  %.03337.us.i = phi i32 [ %35, %._crit_edge.us.i ], [ 0, %.preheader.lr.ph.i ]
  br label %23

23:                                               ; preds = %23, %.preheader.us.i
  %.036.us.i = phi i32 [ 0, %.preheader.us.i ], [ %37, %23 ]
  %.03035.us.i = phi i32 [ %10, %.preheader.us.i ], [ %36, %23 ]
  %.134.us.i = phi i32 [ %.03337.us.i, %.preheader.us.i ], [ %35, %23 ]
  %24 = lshr i32 %.03035.us.i, %17
  %25 = zext i32 %24 to i64
  %26 = getelementptr inbounds nuw i8, ptr %.03238.us.i, i64 %25
  %27 = load i8, ptr %26, align 1, !tbaa !15
  %28 = zext i8 %27 to i32
  %29 = xor i32 %.03035.us.i, -1
  %30 = and i32 %18, %29
  %31 = shl i32 %30, %6
  %32 = lshr i32 %28, %31
  %33 = and i32 %32, %20
  %34 = mul nuw nsw i32 %33, %21
  %35 = add i32 %34, %.134.us.i
  %36 = add i32 %.03035.us.i, 1
  %37 = add nuw i32 %.036.us.i, 1
  %exitcond.not.i = icmp eq i32 %37, %11
  br i1 %exitcond.not.i, label %._crit_edge.us.i, label %23, !llvm.loop !62

._crit_edge.us.i:                                 ; preds = %23
  %38 = getelementptr inbounds i8, ptr %.03238.us.i, i64 %22
  %39 = add nuw i32 %.03139.us.i, 1
  %exitcond44.not.i = icmp eq i32 %39, %13
  br i1 %exitcond44.not.i, label %blend_pixel.exit, label %.preheader.us.i, !llvm.loop !63

blend_pixel.exit:                                 ; preds = %._crit_edge.us.i, %15
  %.033.lcssa.i = phi i32 [ 0, %15 ], [ %35, %._crit_edge.us.i ]
  %40 = lshr i32 %.033.lcssa.i, %16
  %41 = mul i32 %40, %3
  %42 = sub i32 16843009, %41
  %43 = load i8, ptr %0, align 1, !tbaa !15
  %44 = zext i8 %43 to i32
  %45 = mul i32 %42, %44
  %46 = mul i32 %41, %2
  %47 = add i32 %45, %46
  %48 = lshr i32 %47, 24
  %49 = trunc nuw i32 %48 to i8
  store i8 %49, ptr %0, align 1, !tbaa !15
  %50 = sext i32 %1 to i64
  %51 = getelementptr inbounds i8, ptr %0, i64 %50
  %52 = add nsw i32 %11, %10
  br label %53

53:                                               ; preds = %blend_pixel.exit, %14
  %.046 = phi i32 [ %52, %blend_pixel.exit ], [ %10, %14 ]
  %.045 = phi ptr [ %51, %blend_pixel.exit ], [ %0, %14 ]
  %invariant.op = mul nuw nsw i32 %3, %2
  %54 = icmp sgt i32 %7, 0
  br i1 %54, label %.lr.ph, label %._crit_edge

.lr.ph:                                           ; preds = %53
  %55 = shl nuw i32 1, %8
  %56 = add nuw nsw i32 %9, %8
  %57 = sub nsw i32 3, %6
  %58 = lshr i32 7, %6
  %59 = shl nuw i32 1, %6
  %notmask.i51 = shl nsw i32 -1, %59
  %60 = xor i32 %notmask.i51, -1
  %61 = udiv i32 255, %60
  %.not.i52 = icmp eq i32 %13, 0
  %62 = sext i32 %5 to i64
  %63 = sext i32 %1 to i64
  br i1 %.not.i52, label %blend_pixel.exit66.us, label %.preheader.lr.ph.i53

blend_pixel.exit66.us:                            ; preds = %.lr.ph, %blend_pixel.exit66.us
  %.087.us = phi i32 [ %70, %blend_pixel.exit66.us ], [ 0, %.lr.ph ]
  %.186.us = phi ptr [ %69, %blend_pixel.exit66.us ], [ %.045, %.lr.ph ]
  %64 = load i8, ptr %.186.us, align 1, !tbaa !15
  %65 = zext i8 %64 to i32
  %66 = mul nuw i32 %65, 16843009
  %67 = lshr i32 %66, 24
  %68 = trunc nuw i32 %67 to i8
  store i8 %68, ptr %.186.us, align 1, !tbaa !15
  %69 = getelementptr inbounds i8, ptr %.186.us, i64 %63
  %70 = add nuw nsw i32 %.087.us, 1
  %exitcond97.not = icmp eq i32 %70, %7
  br i1 %exitcond97.not, label %._crit_edge.loopexit, label %blend_pixel.exit66.us, !llvm.loop !64

._crit_edge.loopexit:                             ; preds = %blend_pixel.exit66.us
  %71 = add i32 %11, %10
  %72 = shl i32 %7, %8
  %73 = add i32 %71, %72
  br label %._crit_edge

._crit_edge:                                      ; preds = %blend_pixel.exit66.loopexit, %._crit_edge.loopexit, %53
  %.147.lcssa = phi i32 [ %.046, %53 ], [ %73, %._crit_edge.loopexit ], [ %101, %blend_pixel.exit66.loopexit ]
  %.1.lcssa = phi ptr [ %.045, %53 ], [ %69, %._crit_edge.loopexit ], [ %100, %blend_pixel.exit66.loopexit ]
  %.not50 = icmp eq i32 %12, 0
  br i1 %.not50, label %138, label %103

.preheader.lr.ph.i53:                             ; preds = %.lr.ph, %blend_pixel.exit66.loopexit
  %.087 = phi i32 [ %102, %blend_pixel.exit66.loopexit ], [ 0, %.lr.ph ]
  %.186 = phi ptr [ %100, %blend_pixel.exit66.loopexit ], [ %.045, %.lr.ph ]
  %.14785 = phi i32 [ %101, %blend_pixel.exit66.loopexit ], [ %.046, %.lr.ph ]
  br label %.preheader.us.i55

.preheader.us.i55:                                ; preds = %.preheader.lr.ph.i53, %._crit_edge.us.i63
  %.03139.us.i56 = phi i32 [ %90, %._crit_edge.us.i63 ], [ 0, %.preheader.lr.ph.i53 ]
  %.03238.us.i57 = phi ptr [ %89, %._crit_edge.us.i63 ], [ %4, %.preheader.lr.ph.i53 ]
  %.03337.us.i58 = phi i32 [ %86, %._crit_edge.us.i63 ], [ 0, %.preheader.lr.ph.i53 ]
  br label %74

74:                                               ; preds = %74, %.preheader.us.i55
  %.036.us.i59 = phi i32 [ 0, %.preheader.us.i55 ], [ %88, %74 ]
  %.03035.us.i60 = phi i32 [ %.14785, %.preheader.us.i55 ], [ %87, %74 ]
  %.134.us.i61 = phi i32 [ %.03337.us.i58, %.preheader.us.i55 ], [ %86, %74 ]
  %75 = lshr i32 %.03035.us.i60, %57
  %76 = zext i32 %75 to i64
  %77 = getelementptr inbounds nuw i8, ptr %.03238.us.i57, i64 %76
  %78 = load i8, ptr %77, align 1, !tbaa !15
  %79 = zext i8 %78 to i32
  %80 = xor i32 %.03035.us.i60, -1
  %81 = and i32 %58, %80
  %82 = shl i32 %81, %6
  %83 = lshr i32 %79, %82
  %84 = and i32 %83, %60
  %85 = mul nuw nsw i32 %84, %61
  %86 = add i32 %85, %.134.us.i61
  %87 = add i32 %.03035.us.i60, 1
  %88 = add nuw i32 %.036.us.i59, 1
  %exitcond.not.i62 = icmp eq i32 %88, %55
  br i1 %exitcond.not.i62, label %._crit_edge.us.i63, label %74, !llvm.loop !62

._crit_edge.us.i63:                               ; preds = %74
  %89 = getelementptr inbounds i8, ptr %.03238.us.i57, i64 %62
  %90 = add nuw i32 %.03139.us.i56, 1
  %exitcond44.not.i64 = icmp eq i32 %90, %13
  br i1 %exitcond44.not.i64, label %blend_pixel.exit66.loopexit, label %.preheader.us.i55, !llvm.loop !63

blend_pixel.exit66.loopexit:                      ; preds = %._crit_edge.us.i63
  %91 = lshr i32 %86, %56
  %92 = mul i32 %91, %3
  %93 = sub i32 16843009, %92
  %94 = load i8, ptr %.186, align 1, !tbaa !15
  %95 = zext i8 %94 to i32
  %96 = mul i32 %93, %95
  %.reass = mul i32 %91, %invariant.op
  %97 = add i32 %96, %.reass
  %98 = lshr i32 %97, 24
  %99 = trunc nuw i32 %98 to i8
  store i8 %99, ptr %.186, align 1, !tbaa !15
  %100 = getelementptr inbounds i8, ptr %.186, i64 %63
  %101 = add nsw i32 %.14785, %55
  %102 = add nuw nsw i32 %.087, 1
  %exitcond.not = icmp eq i32 %102, %7
  br i1 %exitcond.not, label %._crit_edge, label %.preheader.lr.ph.i53, !llvm.loop !64

103:                                              ; preds = %._crit_edge
  %104 = add nuw nsw i32 %9, %8
  %105 = sub nsw i32 3, %6
  %106 = lshr i32 7, %6
  %107 = shl nuw i32 1, %6
  %notmask.i67 = shl nsw i32 -1, %107
  %108 = xor i32 %notmask.i67, -1
  %109 = udiv i32 255, %108
  %.not.i68 = icmp eq i32 %13, 0
  br i1 %.not.i68, label %blend_pixel.exit82, label %.preheader.lr.ph.i69

.preheader.lr.ph.i69:                             ; preds = %103
  %110 = sext i32 %5 to i64
  br label %.preheader.us.i71

.preheader.us.i71:                                ; preds = %.preheader.lr.ph.i69, %._crit_edge.us.i79
  %.03139.us.i72 = phi i32 [ %127, %._crit_edge.us.i79 ], [ 0, %.preheader.lr.ph.i69 ]
  %.03238.us.i73 = phi ptr [ %126, %._crit_edge.us.i79 ], [ %4, %.preheader.lr.ph.i69 ]
  %.03337.us.i74 = phi i32 [ %123, %._crit_edge.us.i79 ], [ 0, %.preheader.lr.ph.i69 ]
  br label %111

111:                                              ; preds = %111, %.preheader.us.i71
  %.036.us.i75 = phi i32 [ 0, %.preheader.us.i71 ], [ %125, %111 ]
  %.03035.us.i76 = phi i32 [ %.147.lcssa, %.preheader.us.i71 ], [ %124, %111 ]
  %.134.us.i77 = phi i32 [ %.03337.us.i74, %.preheader.us.i71 ], [ %123, %111 ]
  %112 = lshr i32 %.03035.us.i76, %105
  %113 = zext i32 %112 to i64
  %114 = getelementptr inbounds nuw i8, ptr %.03238.us.i73, i64 %113
  %115 = load i8, ptr %114, align 1, !tbaa !15
  %116 = zext i8 %115 to i32
  %117 = xor i32 %.03035.us.i76, -1
  %118 = and i32 %106, %117
  %119 = shl i32 %118, %6
  %120 = lshr i32 %116, %119
  %121 = and i32 %120, %108
  %122 = mul nuw nsw i32 %121, %109
  %123 = add i32 %122, %.134.us.i77
  %124 = add i32 %.03035.us.i76, 1
  %125 = add nuw i32 %.036.us.i75, 1
  %exitcond.not.i78 = icmp eq i32 %125, %12
  br i1 %exitcond.not.i78, label %._crit_edge.us.i79, label %111, !llvm.loop !62

._crit_edge.us.i79:                               ; preds = %111
  %126 = getelementptr inbounds i8, ptr %.03238.us.i73, i64 %110
  %127 = add nuw i32 %.03139.us.i72, 1
  %exitcond44.not.i80 = icmp eq i32 %127, %13
  br i1 %exitcond44.not.i80, label %blend_pixel.exit82, label %.preheader.us.i71, !llvm.loop !63

blend_pixel.exit82:                               ; preds = %._crit_edge.us.i79, %103
  %.033.lcssa.i81 = phi i32 [ 0, %103 ], [ %123, %._crit_edge.us.i79 ]
  %128 = lshr i32 %.033.lcssa.i81, %104
  %129 = mul i32 %128, %3
  %130 = sub i32 16843009, %129
  %131 = load i8, ptr %.1.lcssa, align 1, !tbaa !15
  %132 = zext i8 %131 to i32
  %133 = mul i32 %130, %132
  %134 = mul i32 %129, %2
  %135 = add i32 %133, %134
  %136 = lshr i32 %135, 24
  %137 = trunc nuw i32 %136 to i8
  store i8 %137, ptr %.1.lcssa, align 1, !tbaa !15
  br label %138

138:                                              ; preds = %blend_pixel.exit82, %._crit_edge
  ret void
}